; Function Attrs: mustprogress nounwind uwtable
define hidden noundef zeroext i1 @_ZNK10TypeRawPtr2eqEPK4Type(ptr nocapture noundef nonnull readonly align 8 dereferenceable(56) %0, ptr noundef %1) unnamed_addr #0 align 2 {
  %3 = getelementptr inbounds i8, ptr %0, i64 48
  %4 = load ptr, ptr %3, align 8
  %5 = getelementptr inbounds i8, ptr %1, i64 48
  %6 = load ptr, ptr %5, align 8
  %7 = icmp eq ptr %4, %6
  br i1 %7, label %8, label %_ZNK7TypePtr2eqEPK4Type.exit

8:                                                ; preds = %2
  %9 = getelementptr inbounds i8, ptr %0, i64 40
  %10 = load i32, ptr %9, align 8
  %11 = getelementptr inbounds i8, ptr %1, i64 40
  %12 = load i32, ptr %11, align 8
  %13 = icmp eq i32 %10, %12
  br i1 %13, label %14, label %_ZNK7TypePtr2eqEPK4Type.exit

14:                                               ; preds = %8
  %15 = getelementptr inbounds i8, ptr %0, i64 36
  %16 = load i32, ptr %15, align 4
  %17 = getelementptr inbounds i8, ptr %1, i64 36
  %18 = load i32, ptr %17, align 4
  %19 = icmp eq i32 %16, %18
  br i1 %19, label %20, label %_ZNK7TypePtr2eqEPK4Type.exit

20:                                               ; preds = %14
  %21 = getelementptr inbounds i8, ptr %0, i64 24
  %22 = load ptr, ptr %21, align 8
  %23 = icmp eq ptr %22, null
  br i1 %23, label %30, label %24

24:                                               ; preds = %20
  %25 = load ptr, ptr %1, align 8
  %26 = getelementptr inbounds i8, ptr %25, i64 88
  %27 = load ptr, ptr %26, align 8
  %28 = tail call noundef ptr %27(ptr noundef nonnull align 8 dereferenceable(44) %1) #17
  %29 = icmp eq ptr %28, null
  %.pre.i.i = load ptr, ptr %21, align 8
  br i1 %29, label %30, label %37

30:                                               ; preds = %24, %20
  %31 = phi ptr [ %.pre.i.i, %24 ], [ null, %20 ]
  %32 = load ptr, ptr %1, align 8
  %33 = getelementptr inbounds i8, ptr %32, i64 88
  %34 = load ptr, ptr %33, align 8
  %35 = tail call noundef ptr %34(ptr noundef nonnull align 8 dereferenceable(44) %1) #17
  %36 = icmp eq ptr %31, %35
  br i1 %36, label %54, label %_ZNK7TypePtr2eqEPK4Type.exit

37:                                               ; preds = %24
  %38 = getelementptr inbounds i8, ptr %.pre.i.i, i64 16
  %39 = load i32, ptr %38, align 8
  %40 = load ptr, ptr %1, align 8
  %41 = getelementptr inbounds i8, ptr %40, i64 88
  %42 = load ptr, ptr %41, align 8
  %43 = tail call noundef ptr %42(ptr noundef nonnull align 8 dereferenceable(44) %1) #17
  %44 = getelementptr inbounds i8, ptr %43, i64 16
  %45 = load i32, ptr %44, align 8
  %.not.i.i = icmp eq i32 %39, %45
  br i1 %.not.i.i, label %_ZNK7TypePtr14eq_speculativeEPKS_.exit.i, label %_ZNK7TypePtr2eqEPK4Type.exit

_ZNK7TypePtr14eq_speculativeEPKS_.exit.i:         ; preds = %37
  %46 = load ptr, ptr %21, align 8
  %47 = load ptr, ptr %1, align 8
  %48 = getelementptr inbounds i8, ptr %47, i64 88
  %49 = load ptr, ptr %48, align 8
  %50 = tail call noundef ptr %49(ptr noundef nonnull align 8 dereferenceable(44) %1) #17
  %51 = load ptr, ptr %46, align 8
  %52 = load ptr, ptr %51, align 8
  %53 = tail call noundef zeroext i1 %52(ptr noundef nonnull align 8 dereferenceable(44) %46, ptr noundef %50) #17
  br i1 %53, label %54, label %_ZNK7TypePtr2eqEPK4Type.exit

54:                                               ; preds = %_ZNK7TypePtr14eq_speculativeEPKS_.exit.i, %30
  %55 = getelementptr inbounds i8, ptr %0, i64 32
  %56 = load i32, ptr %55, align 8
  %57 = getelementptr inbounds i8, ptr %1, i64 32
  %58 = load i32, ptr %57, align 8
  %59 = icmp eq i32 %56, %58
  br label %_ZNK7TypePtr2eqEPK4Type.exit

_ZNK7TypePtr2eqEPK4Type.exit:                     ; preds = %54, %_ZNK7TypePtr14eq_speculativeEPKS_.exit.i, %37, %30, %14, %8, %2
  %60 = phi i1 [ false, %2 ], [ false, %_ZNK7TypePtr14eq_speculativeEPKS_.exit.i ], [ false, %14 ], [ false, %8 ], [ %59, %54 ], [ false, %30 ], [ false, %37 ]
  ret i1 %60
}